; Function Attrs: mustprogress uwtable
define void @_ZN3nix10LocalStore10openGCLockEv(ptr dead_on_unwind noalias writable sret(%"class.nix::AutoCloseFD") align 4 %0, ptr noundef nonnull align 8 dereferenceable(504) %1) local_unnamed_addr #5 align 2 personality ptr @__gxx_personality_v0 {
  %3 = alloca %"class.std::__cxx11::basic_string", align 8
  %4 = load ptr, ptr %1, align 8
  %5 = getelementptr i8, ptr %4, i64 -64
  %6 = load i64, ptr %5, align 8
  %7 = getelementptr inbounds i8, ptr %1, i64 %6
  %8 = getelementptr inbounds i8, ptr %7, i64 368
  call void @_ZStplIcSt11char_traitsIcESaIcEENSt7__cxx1112basic_stringIT_T0_T1_EERKS8_PKS5_(ptr dead_on_unwind nonnull writable sret(%"class.std::__cxx11::basic_string") align 8 %3, ptr noundef nonnull align 8 dereferenceable(32) %8, ptr noundef nonnull @.str.75)
  %9 = load ptr, ptr %3, align 8
  %10 = invoke i32 (ptr, i32, ...) @open(ptr noundef %9, i32 noundef 524354, i32 noundef 384)
          to label %11 unwind label %16

11:                                               ; preds = %2
  %.not = icmp eq i32 %10, 0
  br i1 %.not, label %12, label %20

12:                                               ; preds = %11
  %13 = call ptr @__cxa_allocate_exception(i64 384) #33
  %14 = tail call ptr @__errno_location() #37
  %15 = load i32, ptr %14, align 4
  invoke void @_ZN3nix8SysErrorC2IJA29_cNSt7__cxx1112basic_stringIcSt11char_traitsIcESaIcEEEEEEiDpRKT_(ptr noundef nonnull align 8 dereferenceable(380) %13, i32 noundef %15, ptr noundef nonnull align 1 dereferenceable(29) @.str.76, ptr noundef nonnull align 8 dereferenceable(32) %3)
          to label %_ZN3nix8SysErrorC2IJA29_cNSt7__cxx1112basic_stringIcSt11char_traitsIcESaIcEEEEEEDpRKT_.exit unwind label %18

_ZN3nix8SysErrorC2IJA29_cNSt7__cxx1112basic_stringIcSt11char_traitsIcESaIcEEEEEEDpRKT_.exit: ; preds = %12
  invoke void @__cxa_throw(ptr nonnull %13, ptr nonnull @_ZTIN3nix8SysErrorE, ptr nonnull @_ZN3nix8SysErrorD2Ev) #34
          to label %29 unwind label %16

16:                                               ; preds = %20, %_ZN3nix8SysErrorC2IJA29_cNSt7__cxx1112basic_stringIcSt11char_traitsIcESaIcEEEEEEDpRKT_.exit, %2
  %17 = landingpad { ptr, i32 }
          cleanup
  br label %28

18:                                               ; preds = %12
  %19 = landingpad { ptr, i32 }
          cleanup
  call void @__cxa_free_exception(ptr %13) #33
  br label %28

20:                                               ; preds = %11
  invoke void @_ZN3nix11AutoCloseFDC1Ei(ptr noundef nonnull align 4 dereferenceable(4) %0, i32 noundef %10)
          to label %21 unwind label %16

21:                                               ; preds = %20
  %22 = load ptr, ptr %3, align 8
  %23 = getelementptr inbounds i8, ptr %3, i64 16
  %24 = icmp eq ptr %22, %23
  br i1 %24, label %_ZNKSt7__cxx1112basic_stringIcSt11char_traitsIcESaIcEE11_M_is_localEv.exit.thread.i.i, label %_ZNKSt7__cxx1112basic_stringIcSt11char_traitsIcESaIcEE11_M_is_localEv.exit.i.i

_ZNKSt7__cxx1112basic_stringIcSt11char_traitsIcESaIcEE11_M_is_localEv.exit.thread.i.i: ; preds = %21
  %25 = getelementptr inbounds i8, ptr %3, i64 8
  %26 = load i64, ptr %25, align 8
  %27 = icmp ult i64 %26, 16
  call void @llvm.assume(i1 %27)
  br label %_ZNSt7__cxx1112basic_stringIcSt11char_traitsIcESaIcEED2Ev.exit

_ZNKSt7__cxx1112basic_stringIcSt11char_traitsIcESaIcEE11_M_is_localEv.exit.i.i: ; preds = %21
  call void @_ZdlPv(ptr noundef %22) #36
  br label %_ZNSt7__cxx1112basic_stringIcSt11char_traitsIcESaIcEED2Ev.exit

_ZNSt7__cxx1112basic_stringIcSt11char_traitsIcESaIcEED2Ev.exit: ; preds = %_ZNKSt7__cxx1112basic_stringIcSt11char_traitsIcESaIcEE11_M_is_localEv.exit.thread.i.i, %_ZNKSt7__cxx1112basic_stringIcSt11char_traitsIcESaIcEE11_M_is_localEv.exit.i.i
  call void @_ZNSaIcED2Ev(ptr noundef nonnull align 1 dereferenceable(1) %3) #33
  ret void

28:                                               ; preds = %18, %16
  %.pn = phi { ptr, i32 } [ %17, %16 ], [ %19, %18 ]
  call void @_ZNSt7__cxx1112basic_stringIcSt11char_traitsIcESaIcEED2Ev(ptr noundef nonnull align 8 dereferenceable(32) %3) #33
  resume { ptr, i32 } %.pn

29:                                               ; preds = %_ZN3nix8SysErrorC2IJA29_cNSt7__cxx1112basic_stringIcSt11char_traitsIcESaIcEEEEEEDpRKT_.exit
  unreachable
}